target datalayout = "e-m:e-p270:32:32-p271:32:32-p272:64:64-i64:64-i128:128-f80:128-n8:16:32:64-S128"
target triple = "x86_64-unknown-linux-gnu"

%"class.icu_75::UObject" = type { ptr }
%"class.icu_75::UnicodeString" = type { %"class.icu_75::Replaceable", %"union.icu_75::UnicodeString::StackBufferOrFields" }
%"class.icu_75::Replaceable" = type { %"class.icu_75::UObject" }
%"union.icu_75::UnicodeString::StackBufferOrFields" = type { %struct.anon.0, [32 x i8] }
%struct.anon.0 = type { i16, i32, i32, ptr }
%"class.icu_75::AlphabeticIndex" = type { %"class.icu_75::UObject", ptr, i32, i32, ptr, i32, ptr, ptr, ptr, ptr, ptr, %"class.icu_75::UnicodeString", %"class.icu_75::UnicodeString", %"class.icu_75::UnicodeString", %"class.icu_75::UnicodeString", %"class.icu_75::UnicodeString" }

; Function Attrs: mustprogress nounwind uwtable
define void @_ZN6icu_7515AlphabeticIndex27internalResetBucketIteratorEv(ptr noundef nonnull align 8 dereferenceable(400) %this) #0 align 2 {
entry:
  %this.addr = alloca ptr, align 8
  store ptr %this, ptr %this.addr, align 8
  %this1 = load ptr, ptr %this.addr, align 8
  %labelsIterIndex_ = getelementptr inbounds %"class.icu_75::AlphabeticIndex", ptr %this1, i32 0, i32 2
  store i32 -1, ptr %labelsIterIndex_, align 8
  %currentBucket_ = getelementptr inbounds %"class.icu_75::AlphabeticIndex", ptr %this1, i32 0, i32 4
  store ptr null, ptr %currentBucket_, align 8
  ret void
}

; Function Attrs: mustprogress uwtable
define void @_ZN6icu_7515AlphabeticIndex12clearBucketsEv(ptr noundef nonnull align 8 dereferenceable(400) %this) #2 align 2 {
entry:
  %this.addr = alloca ptr, align 8
  store ptr %this, ptr %this.addr, align 8
  %this1 = load ptr, ptr %this.addr, align 8
  %buckets_ = getelementptr inbounds %"class.icu_75::AlphabeticIndex", ptr %this1, i32 0, i32 10
  %0 = load ptr, ptr %buckets_, align 8
  %cmp = icmp ne ptr %0, null
  br i1 %cmp, label %if.then, label %if.end

if.then:                                          ; preds = %entry
  %buckets_2 = getelementptr inbounds %"class.icu_75::AlphabeticIndex", ptr %this1, i32 0, i32 10
  %1 = load ptr, ptr %buckets_2, align 8
  %isnull = icmp eq ptr %1, null
  br i1 %isnull, label %delete.end, label %delete.notnull

delete.notnull:                                   ; preds = %if.then
  %vtable = load ptr, ptr %1, align 8
  %vfn = getelementptr inbounds ptr, ptr %vtable, i64 1
  %2 = load ptr, ptr %vfn, align 8
  call void %2(ptr noundef nonnull align 8 dereferenceable(24) %1) #7
  br label %delete.end

delete.end:                                       ; preds = %delete.notnull, %if.then
  %buckets_3 = getelementptr inbounds %"class.icu_75::AlphabeticIndex", ptr %this1, i32 0, i32 10
  store ptr null, ptr %buckets_3, align 8
  call void @_ZN6icu_7515AlphabeticIndex27internalResetBucketIteratorEv(ptr noundef nonnull align 8 dereferenceable(400) %this1)
  br label %if.end

if.end:                                           ; preds = %delete.end, %entry
  ret void
}

; Function Attrs: mustprogress nounwind uwtable
define internal noundef signext i8 @_ZL9U_FAILURE10UErrorCode(i32 noundef %code) #0 {
entry:
  %code.addr = alloca i32, align 4
  store i32 %code, ptr %code.addr, align 4
  %0 = load i32, ptr %code.addr, align 4
  %cmp = icmp sgt i32 %0, 0
  %conv = zext i1 %cmp to i8
  ret i8 %conv
}

; Function Attrs: mustprogress uwtable
define noundef nonnull align 8 dereferenceable(400) ptr @_ZN6icu_7515AlphabeticIndex16setMaxLabelCountEiR10UErrorCode(ptr noundef nonnull align 8 dereferenceable(400) %this, i32 noundef %maxLabelCount, ptr noundef nonnull align 4 dereferenceable(4) %status) unnamed_addr #2 align 2 {
entry:
  %retval = alloca ptr, align 8
  %this.addr = alloca ptr, align 8
  %maxLabelCount.addr = alloca i32, align 4
  %status.addr = alloca ptr, align 8
  store ptr %this, ptr %this.addr, align 8
  store i32 %maxLabelCount, ptr %maxLabelCount.addr, align 4
  store ptr %status, ptr %status.addr, align 8
  %this1 = load ptr, ptr %this.addr, align 8
  %0 = load ptr, ptr %status.addr, align 8
  %1 = load i32, ptr %0, align 4
  %call = call noundef signext i8 @_ZL9U_FAILURE10UErrorCode(i32 noundef %1)
  %tobool = icmp ne i8 %call, 0
  br i1 %tobool, label %if.then, label %if.end

if.then:                                          ; preds = %entry
  store ptr %this1, ptr %retval, align 8
  br label %return

if.end:                                           ; preds = %entry
  %2 = load i32, ptr %maxLabelCount.addr, align 4
  %cmp = icmp sle i32 %2, 0
  br i1 %cmp, label %if.then2, label %if.end3

if.then2:                                         ; preds = %if.end
  %3 = load ptr, ptr %status.addr, align 8
  store i32 1, ptr %3, align 4
  store ptr %this1, ptr %retval, align 8
  br label %return

if.end3:                                          ; preds = %if.end
  %4 = load i32, ptr %maxLabelCount.addr, align 4
  %maxLabelCount_ = getelementptr inbounds %"class.icu_75::AlphabeticIndex", ptr %this1, i32 0, i32 5
  store i32 %4, ptr %maxLabelCount_, align 8
  call void @_ZN6icu_7515AlphabeticIndex12clearBucketsEv(ptr noundef nonnull align 8 dereferenceable(400) %this1)
  store ptr %this1, ptr %retval, align 8
  br label %return

return:                                           ; preds = %if.end3, %if.then2, %if.then
  %5 = load ptr, ptr %retval, align 8
  ret ptr %5
}