; Function Attrs: mustprogress uwtable
define noundef nonnull align 8 dereferenceable(400) ptr @_ZN6icu_7515AlphabeticIndex16setMaxLabelCountEiR10UErrorCode(ptr noundef nonnull returned align 8 dereferenceable(400) %this, i32 noundef %maxLabelCount, ptr nocapture noundef nonnull align 4 dereferenceable(4) %status) unnamed_addr #3 align 2 {
entry:
  %0 = load i32, ptr %status, align 4
  %cmp.i = icmp slt i32 %0, 1
  br i1 %cmp.i, label %if.end, label %return

if.end:                                           ; preds = %entry
  %cmp = icmp slt i32 %maxLabelCount, 1
  br i1 %cmp, label %if.then2, label %if.end3

if.then2:                                         ; preds = %if.end
  store i32 1, ptr %status, align 4
  br label %return

if.end3:                                          ; preds = %if.end
  %maxLabelCount_ = getelementptr inbounds i8, ptr %this, i64 32
  store i32 %maxLabelCount, ptr %maxLabelCount_, align 8
  %buckets_.i = getelementptr inbounds i8, ptr %this, i64 72
  %1 = load ptr, ptr %buckets_.i, align 8
  %cmp.not.i = icmp eq ptr %1, null
  br i1 %cmp.not.i, label %return, label %delete.notnull.i

delete.notnull.i:                                 ; preds = %if.end3
  %vtable.i = load ptr, ptr %1, align 8
  %vfn.i = getelementptr inbounds i8, ptr %vtable.i, i64 8
  %2 = load ptr, ptr %vfn.i, align 8
  tail call void %2(ptr noundef nonnull align 8 dereferenceable(24) %1) #16
  store ptr null, ptr %buckets_.i, align 8
  %labelsIterIndex_.i.i = getelementptr inbounds i8, ptr %this, i64 16
  store i32 -1, ptr %labelsIterIndex_.i.i, align 8
  %currentBucket_.i.i = getelementptr inbounds i8, ptr %this, i64 24
  store ptr null, ptr %currentBucket_.i.i, align 8
  br label %return

return:                                           ; preds = %delete.notnull.i, %if.end3, %entry, %if.then2
  ret ptr %this
}